target datalayout = "e-m:e-p270:32:32-p271:32:32-p272:64:64-i64:64-i128:128-f80:128-n8:16:32:64-S128"
target triple = "x86_64-pc-linux-gnu"

%class.CellTypeState = type { i32 }
%class.ComputeEntryStack = type <{ %class.SignatureIterator, ptr, i32, [4 x i8] }>
%class.SignatureIterator = type { ptr, i8, i64 }

; Function Attrs: mustprogress nounwind uwtable
define linkonce_odr hidden i32 @_ZN13CellTypeState8make_anyEi(i32 noundef %0) #1 comdat align 2 {
  %2 = alloca %class.CellTypeState, align 4
  %3 = alloca i32, align 4
  store i32 %0, ptr %3, align 4
  %4 = load i32, ptr %3, align 4
  %5 = getelementptr inbounds %class.CellTypeState, ptr %2, i32 0, i32 0
  store i32 %4, ptr %5, align 4
  %6 = getelementptr inbounds %class.CellTypeState, ptr %2, i32 0, i32 0
  %7 = load i32, ptr %6, align 4
  ret i32 %7
}

; Function Attrs: mustprogress nounwind uwtable
define linkonce_odr hidden noundef i32 @_ZN17ComputeEntryStack6lengthEv(ptr noundef nonnull align 8 dereferenceable(36) %0) #1 comdat align 2 {
  %2 = alloca ptr, align 8
  store ptr %0, ptr %2, align 8
  %3 = load ptr, ptr %2, align 8
  %4 = getelementptr inbounds %class.ComputeEntryStack, ptr %3, i32 0, i32 2
  %5 = load i32, ptr %4, align 8
  ret i32 %5
}

; Function Attrs: mustprogress nounwind uwtable
define linkonce_odr hidden i32 @_ZN13CellTypeState13make_slot_refEi(i32 noundef %0) #1 comdat align 2 {
  %2 = alloca %class.CellTypeState, align 4
  %3 = alloca i32, align 4
  store i32 %0, ptr %3, align 4
  %4 = load i32, ptr %3, align 4
  %5 = and i32 %4, 16777215
  %6 = or i32 1191182336, %5
  %7 = call i32 @_ZN13CellTypeState8make_anyEi(i32 noundef %6)
  %8 = getelementptr inbounds %class.CellTypeState, ptr %2, i32 0, i32 0
  store i32 %7, ptr %8, align 4
  %9 = getelementptr inbounds %class.CellTypeState, ptr %2, i32 0, i32 0
  %10 = load i32, ptr %9, align 4
  ret i32 %10
}

; Function Attrs: mustprogress nounwind uwtable
define linkonce_odr hidden void @_ZN17SignatureIteratorC2EP6Symbolm(ptr noundef nonnull align 8 dereferenceable(24) %0, ptr noundef %1, i64 noundef %2) unnamed_addr #1 comdat align 2 {
  %4 = alloca ptr, align 8
  %5 = alloca ptr, align 8
  %6 = alloca i64, align 8
  store ptr %0, ptr %4, align 8
  store ptr %1, ptr %5, align 8
  store i64 %2, ptr %6, align 8
  %7 = load ptr, ptr %4, align 8
  %8 = load ptr, ptr %5, align 8
  %9 = getelementptr inbounds %class.SignatureIterator, ptr %7, i32 0, i32 0
  store ptr %8, ptr %9, align 8
  %10 = getelementptr inbounds %class.SignatureIterator, ptr %7, i32 0, i32 1
  store i8 99, ptr %10, align 8
  %11 = call noundef i64 @_ZN17SignatureIterator16zero_fingerprintEv()
  %12 = getelementptr inbounds %class.SignatureIterator, ptr %7, i32 0, i32 2
  store i64 %11, ptr %12, align 8
  %13 = load i64, ptr %6, align 8
  %14 = getelementptr inbounds %class.SignatureIterator, ptr %7, i32 0, i32 2
  %15 = load i64, ptr %14, align 8
  %16 = icmp ne i64 %13, %15
  br i1 %16, label %17, label %19

17:                                               ; preds = %3
  %18 = load i64, ptr %6, align 8
  call void @_ZN17SignatureIterator15set_fingerprintEm(ptr noundef nonnull align 8 dereferenceable(24) %7, i64 noundef %18)
  br label %19

19:                                               ; preds = %17, %3
  ret void
}

; Function Attrs: mustprogress nounwind uwtable
define linkonce_odr hidden noundef i64 @_ZN17SignatureIterator16zero_fingerprintEv() #1 comdat align 2 {
  ret i64 0
}

; Function Attrs: mustprogress nounwind uwtable
define linkonce_odr hidden noundef i32 @_ZN17ComputeEntryStack22compute_for_parametersEbP13CellTypeState(ptr noundef nonnull align 8 dereferenceable(36) %0, i1 noundef zeroext %1, ptr noundef %2) #1 comdat align 2 {
  %4 = alloca ptr, align 8
  %5 = alloca i8, align 1
  %6 = alloca ptr, align 8
  %7 = alloca %class.CellTypeState, align 4
  store ptr %0, ptr %4, align 8
  %8 = zext i1 %1 to i8
  store i8 %8, ptr %5, align 1
  store ptr %2, ptr %6, align 8
  %9 = load ptr, ptr %4, align 8
  %10 = getelementptr inbounds %class.ComputeEntryStack, ptr %9, i32 0, i32 2
  store i32 0, ptr %10, align 8
  %11 = load ptr, ptr %6, align 8
  %12 = getelementptr inbounds %class.ComputeEntryStack, ptr %9, i32 0, i32 1
  store ptr %11, ptr %12, align 8
  %13 = load i8, ptr %5, align 1
  %14 = trunc i8 %13 to i1
  br i1 %14, label %24, label %15

15:                                               ; preds = %3
  %16 = call i32 @_ZN13CellTypeState13make_slot_refEi(i32 noundef 0)
  %17 = getelementptr inbounds %class.CellTypeState, ptr %7, i32 0, i32 0
  store i32 %16, ptr %17, align 4
  %18 = load ptr, ptr %6, align 8
  %19 = getelementptr inbounds %class.ComputeEntryStack, ptr %9, i32 0, i32 2
  %20 = load i32, ptr %19, align 8
  %21 = add nsw i32 %20, 1
  store i32 %21, ptr %19, align 8
  %22 = sext i32 %20 to i64
  %23 = getelementptr inbounds %class.CellTypeState, ptr %18, i64 %22
  call void @llvm.memcpy.p0.p0.i64(ptr align 4 %23, ptr align 4 %7, i64 4, i1 false)
  br label %24

24:                                               ; preds = %15, %3
  call void @_ZN17SignatureIterator16do_parameters_onI17ComputeEntryStackEEvPT_(ptr noundef nonnull align 8 dereferenceable(24) %9, ptr noundef %9)
  %25 = call noundef i32 @_ZN17ComputeEntryStack6lengthEv(ptr noundef nonnull align 8 dereferenceable(36) %9)
  ret i32 %25
}

; Function Attrs: mustprogress nounwind uwtable
define linkonce_odr hidden void @_ZN17ComputeEntryStackC2EP6Symbol(ptr noundef nonnull align 8 dereferenceable(36) %0, ptr noundef %1) unnamed_addr #1 comdat align 2 {
  %3 = alloca ptr, align 8
  %4 = alloca ptr, align 8
  store ptr %0, ptr %3, align 8
  store ptr %1, ptr %4, align 8
  %5 = load ptr, ptr %3, align 8
  %6 = load ptr, ptr %4, align 8
  %7 = call noundef i64 @_ZN17SignatureIterator16zero_fingerprintEv()
  call void @_ZN17SignatureIteratorC2EP6Symbolm(ptr noundef nonnull align 8 dereferenceable(24) %5, ptr noundef %6, i64 noundef %7)
  ret void
}

; Function Attrs: mustprogress nounwind uwtable
define hidden noundef i32 @_ZN14GenerateOopMap19methodsig_to_effectEP6SymbolbP13CellTypeState(ptr noundef nonnull align 8 dereferenceable(176) %0, ptr noundef %1, i1 noundef zeroext %2, ptr noundef %3) #1 align 2 {
  %5 = alloca ptr, align 8
  %6 = alloca ptr, align 8
  %7 = alloca i8, align 1
  %8 = alloca ptr, align 8
  %9 = alloca %class.ComputeEntryStack, align 8
  store ptr %0, ptr %5, align 8
  store ptr %1, ptr %6, align 8
  %10 = zext i1 %2 to i8
  store i8 %10, ptr %7, align 1
  store ptr %3, ptr %8, align 8
  %11 = load ptr, ptr %6, align 8
  call void @_ZN17ComputeEntryStackC2EP6Symbol(ptr noundef nonnull align 8 dereferenceable(36) %9, ptr noundef %11)
  %12 = load i8, ptr %7, align 1
  %13 = trunc i8 %12 to i1
  %14 = load ptr, ptr %8, align 8
  %15 = call noundef i32 @_ZN17ComputeEntryStack22compute_for_parametersEbP13CellTypeState(ptr noundef nonnull align 8 dereferenceable(36) %9, i1 noundef zeroext %13, ptr noundef %14)
  ret i32 %15
}