; Function Attrs: mustprogress nounwind uwtable
define hidden noundef i32 @_ZN14GenerateOopMap19methodsig_to_effectEP6SymbolbP13CellTypeState(ptr nocapture noundef nonnull readnone align 8 dereferenceable(176) %0, ptr noundef %1, i1 noundef zeroext %2, ptr noundef %3) local_unnamed_addr #0 align 2 {
  %5 = alloca %class.ComputeEntryStack, align 8
  store ptr %1, ptr %5, align 8
  %6 = getelementptr inbounds i8, ptr %5, i64 8
  store i8 99, ptr %6, align 8
  %7 = getelementptr inbounds i8, ptr %5, i64 16
  store i64 0, ptr %7, align 8
  %8 = getelementptr inbounds i8, ptr %5, i64 32
  store i32 0, ptr %8, align 8
  %9 = getelementptr inbounds i8, ptr %5, i64 24
  store ptr %3, ptr %9, align 8
  br i1 %2, label %_ZN17ComputeEntryStack22compute_for_parametersEbP13CellTypeState.exit, label %10

10:                                               ; preds = %4
  store i32 1, ptr %8, align 8
  store i32 1191182336, ptr %3, align 4
  br label %_ZN17ComputeEntryStack22compute_for_parametersEbP13CellTypeState.exit

_ZN17ComputeEntryStack22compute_for_parametersEbP13CellTypeState.exit: ; preds = %4, %10
  call void @_ZN17SignatureIterator16do_parameters_onI17ComputeEntryStackEEvPT_(ptr noundef nonnull align 8 dereferenceable(24) %5, ptr noundef nonnull %5)
  %11 = load i32, ptr %8, align 8
  ret i32 %11
}